; Function Attrs: mustprogress nounwind uwtable
define dso_local void @_ZN4llvm17GenericSSAContextINS_8FunctionEE16appendBlockTermsERNS_15SmallVectorImplIPKNS_11InstructionEEERKNS_10BasicBlockE(ptr noundef nonnull align 8 dereferenceable(16) %0, ptr noundef nonnull readonly align 8 dereferenceable(80) %1) local_unnamed_addr #0 align 2 {
  %3 = getelementptr inbounds nuw i8, ptr %1, i64 48
  %4 = load ptr, ptr %3, align 8
  %5 = icmp eq ptr %3, %4
  br i1 %5, label %_ZNK4llvm10BasicBlock13getTerminatorEv.exit, label %6

6:                                                ; preds = %2
  %7 = getelementptr inbounds i8, ptr %4, i64 -24
  %8 = load i8, ptr %7, align 8
  %9 = zext i8 %8 to i32
  %10 = add nsw i32 %9, -30
  %11 = icmp ult i32 %10, 11
  %12 = ptrtoint ptr %7 to i64
  %13 = select i1 %11, i64 %12, i64 0
  br label %_ZNK4llvm10BasicBlock13getTerminatorEv.exit

_ZNK4llvm10BasicBlock13getTerminatorEv.exit:      ; preds = %2, %6
  %.0.i = phi i64 [ 0, %2 ], [ %13, %6 ]
  %14 = tail call noundef i64 @_ZNK4llvm15SmallVectorBaseIjE4sizeEv(ptr noundef nonnull align 8 dereferenceable(16) %0) #9
  %15 = add i64 %14, 1
  %16 = tail call noundef i64 @_ZNK4llvm15SmallVectorBaseIjE8capacityEv(ptr noundef nonnull align 8 dereferenceable(16) %0) #9
  %.not.i.i.i = icmp ugt i64 %15, %16
  br i1 %.not.i.i.i, label %17, label %_ZN4llvm23SmallVectorTemplateBaseIPKNS_11InstructionELb1EE9push_backES3_.exit

17:                                               ; preds = %_ZNK4llvm10BasicBlock13getTerminatorEv.exit
  %18 = getelementptr inbounds i8, ptr %0, i64 16
  tail call void @_ZN4llvm15SmallVectorBaseIjE8grow_podEPvmm(ptr noundef nonnull align 8 dereferenceable(16) %0, ptr noundef nonnull %18, i64 noundef %15, i64 noundef 8) #9
  br label %_ZN4llvm23SmallVectorTemplateBaseIPKNS_11InstructionELb1EE9push_backES3_.exit

_ZN4llvm23SmallVectorTemplateBaseIPKNS_11InstructionELb1EE9push_backES3_.exit: ; preds = %_ZNK4llvm10BasicBlock13getTerminatorEv.exit, %17
  %19 = load ptr, ptr %0, align 8
  %20 = tail call noundef i64 @_ZNK4llvm15SmallVectorBaseIjE4sizeEv(ptr noundef nonnull align 8 dereferenceable(16) %0) #9
  %21 = getelementptr inbounds ptr, ptr %19, i64 %20
  store i64 %.0.i, ptr %21, align 1
  %22 = tail call noundef i64 @_ZNK4llvm15SmallVectorBaseIjE4sizeEv(ptr noundef nonnull align 8 dereferenceable(16) %0) #9
  %23 = add i64 %22, 1
  tail call void @_ZN4llvm15SmallVectorBaseIjE8set_sizeEm(ptr noundef nonnull align 8 dereferenceable(16) %0, i64 noundef %23) #9
  ret void
}